target datalayout = "e-m:e-p270:32:32-p271:32:32-p272:64:64-i64:64-i128:128-f80:128-n8:16:32:64-S128"
target triple = "x86_64-unknown-linux-gnu"

@.str.38 = private unnamed_addr constant [33 x i8] c"Read error: malformed RLE record\00", align 1

; Function Attrs: mustprogress uwtable
define hidden noundef i64 @_ZN18OpenImageIO_v2_6_08RLAInput15decode_rle_spanEPhiiPKcm(ptr noundef nonnull align 8 dereferenceable(1024) %this, ptr noundef %buf, i32 noundef %n, i32 noundef %stride, ptr noundef %encoded, i64 noundef %elen) #6 align 2 {
entry:
  %retval = alloca i64, align 8
  %this.addr = alloca ptr, align 8
  %buf.addr = alloca ptr, align 8
  %n.addr = alloca i32, align 4
  %stride.addr = alloca i32, align 4
  %encoded.addr = alloca ptr, align 8
  %elen.addr = alloca i64, align 8
  %e = alloca i64, align 8
  %count = alloca i8, align 1
  %i = alloca i32, align 4
  store ptr %this, ptr %this.addr, align 8
  store ptr %buf, ptr %buf.addr, align 8
  store i32 %n, ptr %n.addr, align 4
  store i32 %stride, ptr %stride.addr, align 4
  store ptr %encoded, ptr %encoded.addr, align 8
  store i64 %elen, ptr %elen.addr, align 8
  %this1 = load ptr, ptr %this.addr, align 8
  store i64 0, ptr %e, align 8
  br label %while.cond

while.cond:                                       ; preds = %if.end, %entry
  %0 = load i32, ptr %n.addr, align 4
  %cmp = icmp sgt i32 %0, 0
  br i1 %cmp, label %land.rhs, label %land.end

land.rhs:                                         ; preds = %while.cond
  %1 = load i64, ptr %e, align 8
  %2 = load i64, ptr %elen.addr, align 8
  %cmp2 = icmp ult i64 %1, %2
  br label %land.end

land.end:                                         ; preds = %land.rhs, %while.cond
  %3 = phi i1 [ false, %while.cond ], [ %cmp2, %land.rhs ]
  br i1 %3, label %while.body, label %while.end

while.body:                                       ; preds = %land.end
  %4 = load ptr, ptr %encoded.addr, align 8
  %5 = load i64, ptr %e, align 8
  %inc = add i64 %5, 1
  store i64 %inc, ptr %e, align 8
  %arrayidx = getelementptr inbounds i8, ptr %4, i64 %5
  %6 = load i8, ptr %arrayidx, align 1
  store i8 %6, ptr %count, align 1
  %7 = load i8, ptr %count, align 1
  %conv = sext i8 %7 to i32
  %cmp3 = icmp sge i32 %conv, 0
  br i1 %cmp3, label %if.then, label %if.else

if.then:                                          ; preds = %while.body
  store i32 0, ptr %i, align 4
  br label %for.cond

for.cond:                                         ; preds = %for.inc, %if.then
  %8 = load i32, ptr %i, align 4
  %9 = load i8, ptr %count, align 1
  %conv4 = sext i8 %9 to i32
  %cmp5 = icmp sle i32 %8, %conv4
  br i1 %cmp5, label %land.lhs.true, label %land.end8

land.lhs.true:                                    ; preds = %for.cond
  %10 = load i32, ptr %n.addr, align 4
  %tobool = icmp ne i32 %10, 0
  br i1 %tobool, label %land.rhs6, label %land.end8

land.rhs6:                                        ; preds = %land.lhs.true
  %11 = load i64, ptr %e, align 8
  %12 = load i64, ptr %elen.addr, align 8
  %cmp7 = icmp ult i64 %11, %12
  br label %land.end8

land.end8:                                        ; preds = %land.rhs6, %land.lhs.true, %for.cond
  %13 = phi i1 [ false, %land.lhs.true ], [ false, %for.cond ], [ %cmp7, %land.rhs6 ]
  br i1 %13, label %for.body, label %for.end

for.body:                                         ; preds = %land.end8
  %14 = load ptr, ptr %encoded.addr, align 8
  %15 = load i64, ptr %e, align 8
  %arrayidx9 = getelementptr inbounds i8, ptr %14, i64 %15
  %16 = load i8, ptr %arrayidx9, align 1
  %17 = load ptr, ptr %buf.addr, align 8
  store i8 %16, ptr %17, align 1
  br label %for.inc

for.inc:                                          ; preds = %for.body
  %18 = load i32, ptr %i, align 4
  %inc10 = add nsw i32 %18, 1
  store i32 %inc10, ptr %i, align 4
  %19 = load i32, ptr %stride.addr, align 4
  %20 = load ptr, ptr %buf.addr, align 8
  %idx.ext = sext i32 %19 to i64
  %add.ptr = getelementptr inbounds i8, ptr %20, i64 %idx.ext
  store ptr %add.ptr, ptr %buf.addr, align 8
  %21 = load i32, ptr %n.addr, align 4
  %dec = add nsw i32 %21, -1
  store i32 %dec, ptr %n.addr, align 4
  br label %for.cond, !llvm.loop !11

for.end:                                          ; preds = %land.end8
  %22 = load i64, ptr %e, align 8
  %inc11 = add i64 %22, 1
  store i64 %inc11, ptr %e, align 8
  br label %if.end

if.else:                                          ; preds = %while.body
  %23 = load i8, ptr %count, align 1
  %conv12 = sext i8 %23 to i32
  %sub = sub nsw i32 0, %conv12
  %conv13 = trunc i32 %sub to i8
  store i8 %conv13, ptr %count, align 1
  br label %for.cond14

for.cond14:                                       ; preds = %for.inc24, %if.else
  %24 = load i8, ptr %count, align 1
  %tobool15 = icmp ne i8 %24, 0
  br i1 %tobool15, label %land.lhs.true16, label %land.end20

land.lhs.true16:                                  ; preds = %for.cond14
  %25 = load i32, ptr %n.addr, align 4
  %cmp17 = icmp sgt i32 %25, 0
  br i1 %cmp17, label %land.rhs18, label %land.end20

land.rhs18:                                       ; preds = %land.lhs.true16
  %26 = load i64, ptr %e, align 8
  %27 = load i64, ptr %elen.addr, align 8
  %cmp19 = icmp ult i64 %26, %27
  br label %land.end20

land.end20:                                       ; preds = %land.rhs18, %land.lhs.true16, %for.cond14
  %28 = phi i1 [ false, %land.lhs.true16 ], [ false, %for.cond14 ], [ %cmp19, %land.rhs18 ]
  br i1 %28, label %for.body21, label %for.end29

for.body21:                                       ; preds = %land.end20
  %29 = load ptr, ptr %encoded.addr, align 8
  %30 = load i64, ptr %e, align 8
  %inc22 = add i64 %30, 1
  store i64 %inc22, ptr %e, align 8
  %arrayidx23 = getelementptr inbounds i8, ptr %29, i64 %30
  %31 = load i8, ptr %arrayidx23, align 1
  %32 = load ptr, ptr %buf.addr, align 8
  store i8 %31, ptr %32, align 1
  br label %for.inc24

for.inc24:                                        ; preds = %for.body21
  %33 = load i8, ptr %count, align 1
  %dec25 = add i8 %33, -1
  store i8 %dec25, ptr %count, align 1
  %34 = load i32, ptr %stride.addr, align 4
  %35 = load ptr, ptr %buf.addr, align 8
  %idx.ext26 = sext i32 %34 to i64
  %add.ptr27 = getelementptr inbounds i8, ptr %35, i64 %idx.ext26
  store ptr %add.ptr27, ptr %buf.addr, align 8
  %36 = load i32, ptr %n.addr, align 4
  %dec28 = add nsw i32 %36, -1
  store i32 %dec28, ptr %n.addr, align 4
  br label %for.cond14, !llvm.loop !12

for.end29:                                        ; preds = %land.end20
  br label %if.end

if.end:                                           ; preds = %for.end29, %for.end
  br label %while.cond, !llvm.loop !13

while.end:                                        ; preds = %land.end
  %37 = load i32, ptr %n.addr, align 4
  %cmp30 = icmp ne i32 %37, 0
  br i1 %cmp30, label %if.then31, label %if.end32

if.then31:                                        ; preds = %while.end
  call void @_ZNK18OpenImageIO_v2_6_010ImageInput8errorfmtIJEEEvPKcDpRKT_(ptr noundef nonnull align 8 dereferenceable(184) %this1, ptr noundef @.str.38)
  store i64 0, ptr %retval, align 8
  br label %return

if.end32:                                         ; preds = %while.end
  %38 = load i64, ptr %e, align 8
  store i64 %38, ptr %retval, align 8
  br label %return

return:                                           ; preds = %if.end32, %if.then31
  %39 = load i64, ptr %retval, align 8
  ret i64 %39
}