; Function Attrs: mustprogress uwtable
define hidden noundef i64 @_ZN18OpenImageIO_v2_6_08RLAInput15decode_rle_spanEPhiiPKcm(ptr noundef nonnull align 8 dereferenceable(1024) %this, ptr nocapture noundef writeonly %buf, i32 noundef %n, i32 noundef %stride, ptr nocapture noundef readonly %encoded, i64 noundef %elen) local_unnamed_addr #5 align 2 {
entry:
  %cmp42 = icmp sgt i32 %n, 0
  %cmp243 = icmp ne i64 %elen, 0
  %0 = and i1 %cmp42, %cmp243
  br i1 %0, label %while.body.lr.ph, label %while.end

while.body.lr.ph:                                 ; preds = %entry
  %idx.ext26 = sext i32 %stride to i64
  br label %while.body

while.body:                                       ; preds = %while.body.lr.ph, %if.end
  %e.046 = phi i64 [ 0, %while.body.lr.ph ], [ %e.2, %if.end ]
  %buf.addr.045 = phi ptr [ %buf, %while.body.lr.ph ], [ %buf.addr.3, %if.end ]
  %n.addr.044 = phi i32 [ %n, %while.body.lr.ph ], [ %n.addr.3, %if.end ]
  %inc = add nuw i64 %e.046, 1
  %arrayidx = getelementptr inbounds i8, ptr %encoded, i64 %e.046
  %1 = load i8, ptr %arrayidx, align 1
  %conv = sext i8 %1 to i32
  %cmp3 = icmp sgt i8 %1, -1
  %cmp7 = icmp ult i64 %inc, %elen
  br i1 %cmp3, label %for.cond.preheader, label %if.else

for.cond.preheader:                               ; preds = %while.body
  br i1 %cmp7, label %for.body.lr.ph, label %for.end

for.body.lr.ph:                                   ; preds = %for.cond.preheader
  %arrayidx9 = getelementptr inbounds i8, ptr %encoded, i64 %inc
  %2 = add nsw i32 %n.addr.044, -1
  %umin = tail call i32 @llvm.umin.i32(i32 %2, i32 %conv)
  %.pre = load i8, ptr %arrayidx9, align 1
  br label %for.body

for.body:                                         ; preds = %for.body.lr.ph, %for.body
  %i.038 = phi i32 [ 0, %for.body.lr.ph ], [ %inc10, %for.body ]
  %buf.addr.137 = phi ptr [ %buf.addr.045, %for.body.lr.ph ], [ %add.ptr, %for.body ]
  %n.addr.136 = phi i32 [ %n.addr.044, %for.body.lr.ph ], [ %dec, %for.body ]
  store i8 %.pre, ptr %buf.addr.137, align 1
  %inc10 = add nuw nsw i32 %i.038, 1
  %add.ptr = getelementptr inbounds i8, ptr %buf.addr.137, i64 %idx.ext26
  %dec = add nsw i32 %n.addr.136, -1
  %exitcond.not = icmp eq i32 %i.038, %umin
  br i1 %exitcond.not, label %for.end, label %for.body, !llvm.loop !30

for.end:                                          ; preds = %for.body, %for.cond.preheader
  %n.addr.1.lcssa = phi i32 [ %n.addr.044, %for.cond.preheader ], [ %dec, %for.body ]
  %buf.addr.1.lcssa = phi ptr [ %buf.addr.045, %for.cond.preheader ], [ %add.ptr, %for.body ]
  %inc11 = add i64 %e.046, 2
  br label %if.end

if.else:                                          ; preds = %while.body
  br i1 %cmp7, label %for.body21.preheader, label %if.end

for.body21.preheader:                             ; preds = %if.else
  %sub = sub i8 0, %1
  br label %for.body21

for.body21:                                       ; preds = %for.body21.preheader, %for.body21
  %count.033 = phi i8 [ %dec25, %for.body21 ], [ %sub, %for.body21.preheader ]
  %e.132 = phi i64 [ %inc22, %for.body21 ], [ %inc, %for.body21.preheader ]
  %buf.addr.231 = phi ptr [ %add.ptr27, %for.body21 ], [ %buf.addr.045, %for.body21.preheader ]
  %n.addr.230 = phi i32 [ %dec28, %for.body21 ], [ %n.addr.044, %for.body21.preheader ]
  %inc22 = add nuw i64 %e.132, 1
  %arrayidx23 = getelementptr inbounds i8, ptr %encoded, i64 %e.132
  %3 = load i8, ptr %arrayidx23, align 1
  store i8 %3, ptr %buf.addr.231, align 1
  %dec25 = add i8 %count.033, -1
  %add.ptr27 = getelementptr inbounds i8, ptr %buf.addr.231, i64 %idx.ext26
  %dec28 = add nsw i32 %n.addr.230, -1
  %tobool15 = icmp ne i8 %dec25, 0
  %cmp17 = icmp ne i32 %dec28, 0
  %or.cond1 = select i1 %tobool15, i1 %cmp17, i1 false
  %cmp19 = icmp ult i64 %inc22, %elen
  %or.cond28 = select i1 %or.cond1, i1 %cmp19, i1 false
  br i1 %or.cond28, label %for.body21, label %if.end, !llvm.loop !31

if.end:                                           ; preds = %for.body21, %if.else, %for.end
  %n.addr.3 = phi i32 [ %n.addr.1.lcssa, %for.end ], [ %n.addr.044, %if.else ], [ %dec28, %for.body21 ]
  %buf.addr.3 = phi ptr [ %buf.addr.1.lcssa, %for.end ], [ %buf.addr.045, %if.else ], [ %add.ptr27, %for.body21 ]
  %e.2 = phi i64 [ %inc11, %for.end ], [ %inc, %if.else ], [ %inc22, %for.body21 ]
  %cmp = icmp sgt i32 %n.addr.3, 0
  %cmp2 = icmp ult i64 %e.2, %elen
  %4 = select i1 %cmp, i1 %cmp2, i1 false
  br i1 %4, label %while.body, label %while.end, !llvm.loop !32

while.end:                                        ; preds = %if.end, %entry
  %n.addr.0.lcssa = phi i32 [ %n, %entry ], [ %n.addr.3, %if.end ]
  %e.0.lcssa = phi i64 [ 0, %entry ], [ %e.2, %if.end ]
  %cmp30.not = icmp eq i32 %n.addr.0.lcssa, 0
  br i1 %cmp30.not, label %return, label %if.then31

if.then31:                                        ; preds = %while.end
  tail call void @_ZNK18OpenImageIO_v2_6_010ImageInput8errorfmtIJEEEvPKcDpRKT_(ptr noundef nonnull align 8 dereferenceable(184) %this, ptr noundef nonnull @.str.38)
  br label %return

return:                                           ; preds = %while.end, %if.then31
  %retval.0 = phi i64 [ 0, %if.then31 ], [ %e.0.lcssa, %while.end ]
  ret i64 %retval.0
}